; Function Attrs: null_pointer_is_valid sspstrong uwtable
define internal noundef i32 @dissect_butype_info(ptr noundef %0, i32 noundef %1, ptr noundef %2, ptr noundef %3, ptr readnone captures(none) %4) #0 {
  %6 = load i32, ptr @hf_ndmp_butype_name, align 4
  %7 = tail call i32 @dissect_rpc_string(ptr noundef %0, ptr noundef %3, i32 noundef %6, i32 noundef %1, ptr noundef null)
  %8 = load i32, ptr @hf_ndmp_butype_default_env, align 4
  %9 = tail call i32 @dissect_rpc_array(ptr noundef %0, ptr noundef %2, ptr noundef %3, i32 noundef %7, ptr noundef nonnull @dissect_default_env, i32 noundef %8)
  %10 = load i32, ptr @hf_ndmp_butype_attr, align 4
  %11 = load i32, ptr @ett_ndmp_butype_attrs, align 4
  %12 = tail call ptr @proto_tree_add_bitmask(ptr noundef %3, ptr noundef %0, i32 noundef %9, i32 noundef %10, i32 noundef %11, ptr noundef nonnull @dissect_butype_attrs.attribute_flags, i32 noundef 0)
  %13 = add i32 %9, 4
  ret i32 %13
}